target datalayout = "e-m:e-p270:32:32-p271:32:32-p272:64:64-i64:64-i128:128-f80:128-n8:16:32:64-S128"
target triple = "x86_64-pc-linux-gnu"

%struct.timeval = type { i64, i64 }
%struct.connection = type { i32, ptr, i32, %struct.timeval, ptr, i32 }

@.str.59 = private unnamed_addr constant [17 x i8] c"UNKNOWN COMMAND\0A\00", align 1
@__PRETTY_FUNCTION__.read_version = private unnamed_addr constant [27 x i8] c"int read_version(conn_t *)\00", align 1

; Function Attrs: nounwind uwtable
define internal i32 @read_version(ptr noundef %0) #0 {
  %2 = alloca i32, align 4
  %3 = alloca ptr, align 8
  %4 = alloca [1024 x i8], align 16
  %5 = alloca i32, align 4
  store ptr %0, ptr %3, align 8
  %6 = load ptr, ptr %3, align 8
  %7 = getelementptr inbounds [1024 x i8], ptr %4, i64 0, i64 0
  %8 = call i32 @recv_line(ptr noundef %6, ptr noundef %7, i64 noundef 1024)
  %9 = icmp ne i32 %8, 0
  br i1 %9, label %11, label %10

10:                                               ; preds = %1
  store i32 -1, ptr %2, align 4
  br label %59

11:                                               ; preds = %1
  %12 = getelementptr inbounds [1024 x i8], ptr %4, i64 0, i64 0
  %13 = call i32 @strcmp(ptr noundef %12, ptr noundef @.str.59) #14
  %14 = icmp ne i32 %13, 0
  br i1 %14, label %16, label %15

15:                                               ; preds = %11
  store i32 -2, ptr %2, align 4
  br label %59

16:                                               ; preds = %11
  %17 = getelementptr inbounds [1024 x i8], ptr %4, i64 0, i64 0
  %18 = call noalias ptr @strdup(ptr noundef %17) #13
  %19 = load ptr, ptr %3, align 8
  %20 = getelementptr inbounds %struct.connection, ptr %19, i32 0, i32 4
  store ptr %18, ptr %20, align 8
  br label %21

21:                                               ; preds = %16
  %22 = load ptr, ptr %3, align 8
  %23 = getelementptr inbounds %struct.connection, ptr %22, i32 0, i32 4
  %24 = load ptr, ptr %23, align 8
  %25 = icmp ne ptr %24, null
  br i1 %25, label %27, label %26

26:                                               ; preds = %21
  call void @exit_program(i32 noundef 3, ptr noundef @__PRETTY_FUNCTION__.read_version, i32 noundef 1333) #16
  unreachable

27:                                               ; preds = %21
  br label %28

28:                                               ; preds = %27
  store i32 0, ptr %5, align 4
  br label %29

29:                                               ; preds = %55, %28
  %30 = load i32, ptr %5, align 4
  %31 = zext i32 %30 to i64
  %32 = load ptr, ptr %3, align 8
  %33 = getelementptr inbounds %struct.connection, ptr %32, i32 0, i32 4
  %34 = load ptr, ptr %33, align 8
  %35 = call i64 @strlen(ptr noundef %34) #14
  %36 = icmp ult i64 %31, %35
  br i1 %36, label %37, label %58

37:                                               ; preds = %29
  %38 = load ptr, ptr %3, align 8
  %39 = getelementptr inbounds %struct.connection, ptr %38, i32 0, i32 4
  %40 = load ptr, ptr %39, align 8
  %41 = load i32, ptr %5, align 4
  %42 = zext i32 %41 to i64
  %43 = getelementptr inbounds i8, ptr %40, i64 %42
  %44 = load i8, ptr %43, align 1
  %45 = sext i8 %44 to i32
  %46 = icmp eq i32 %45, 10
  br i1 %46, label %47, label %54

47:                                               ; preds = %37
  %48 = load ptr, ptr %3, align 8
  %49 = getelementptr inbounds %struct.connection, ptr %48, i32 0, i32 4
  %50 = load ptr, ptr %49, align 8
  %51 = load i32, ptr %5, align 4
  %52 = zext i32 %51 to i64
  %53 = getelementptr inbounds i8, ptr %50, i64 %52
  store i8 32, ptr %53, align 1
  br label %54

54:                                               ; preds = %47, %37
  br label %55

55:                                               ; preds = %54
  %56 = load i32, ptr %5, align 4
  %57 = add i32 %56, 1
  store i32 %57, ptr %5, align 4
  br label %29

58:                                               ; preds = %29
  store i32 0, ptr %2, align 4
  br label %59

59:                                               ; preds = %58, %15, %10
  %60 = load i32, ptr %2, align 4
  ret i32 %60
}