; Function Attrs: nounwind uwtable
define internal fastcc noundef i32 @read_version(ptr noundef %0) unnamed_addr #0 {
  %2 = alloca [1024 x i8], align 16
  %3 = call fastcc i32 @recv_line(ptr noundef %0, ptr noundef nonnull %2)
  %.not = icmp eq i32 %3, 0
  br i1 %.not, label %.loopexit, label %4

4:                                                ; preds = %1
  %bcmp = call i32 @bcmp(ptr noundef nonnull dereferenceable(17) %2, ptr noundef nonnull dereferenceable(17) @.str.59, i64 17)
  %.not12 = icmp eq i32 %bcmp, 0
  br i1 %.not12, label %.loopexit, label %5

5:                                                ; preds = %4
  %6 = call noalias ptr @strdup(ptr noundef nonnull %2) #25
  %7 = getelementptr inbounds i8, ptr %0, i64 40
  store ptr %6, ptr %7, align 8
  %.not13 = icmp eq ptr %6, null
  br i1 %.not13, label %8, label %.preheader

.preheader:                                       ; preds = %5
  %char0 = load i8, ptr %6, align 1
  %.not15 = icmp eq i8 %char0, 0
  br i1 %.not15, label %.loopexit, label %.lr.ph

8:                                                ; preds = %5
  call fastcc void @exit_program(i32 noundef 3, ptr noundef nonnull @__PRETTY_FUNCTION__.read_version, i32 noundef 1333) #29
  unreachable

.lr.ph:                                           ; preds = %.preheader, %15
  %9 = phi ptr [ %16, %15 ], [ %6, %.preheader ]
  %10 = phi i64 [ %18, %15 ], [ 0, %.preheader ]
  %.014 = phi i32 [ %17, %15 ], [ 0, %.preheader ]
  %11 = getelementptr inbounds i8, ptr %9, i64 %10
  %12 = load i8, ptr %11, align 1
  %13 = icmp eq i8 %12, 10
  br i1 %13, label %14, label %15

14:                                               ; preds = %.lr.ph
  store i8 32, ptr %11, align 1
  %.pre = load ptr, ptr %7, align 8
  br label %15

15:                                               ; preds = %.lr.ph, %14
  %16 = phi ptr [ %9, %.lr.ph ], [ %.pre, %14 ]
  %17 = add i32 %.014, 1
  %18 = zext i32 %17 to i64
  %19 = call i64 @strlen(ptr noundef nonnull dereferenceable(1) %16) #26
  %20 = icmp ugt i64 %19, %18
  br i1 %20, label %.lr.ph, label %.loopexit

.loopexit:                                        ; preds = %15, %.preheader, %4, %1
  %.010 = phi i32 [ -1, %1 ], [ -2, %4 ], [ 0, %.preheader ], [ 0, %15 ]
  ret i32 %.010
}